target datalayout = "e-m:e-p270:32:32-p271:32:32-p272:64:64-i64:64-f80:128-n8:16:32:64-S128"
target triple = "x86_64-pc-linux-gnu"

@.str = private unnamed_addr constant [3 x i8] c"%d\00", align 1
@.str.1 = private unnamed_addr constant [2 x i8] c",\00", align 1

; Function Attrs: noinline nounwind uwtable
define dso_local void @main() #0 {
  %1 = alloca [300 x i32], align 16
  %2 = alloca i32, align 4
  %3 = alloca i32, align 4
  %4 = alloca i32, align 4
  %5 = alloca i32, align 4
  %6 = alloca [300 x i32], align 16
  %7 = alloca i32, align 4
  %8 = alloca float, align 4
  %9 = alloca [300 x float], align 16
  %10 = alloca i32, align 4
  %11 = alloca i32, align 4
  %12 = alloca i32, align 4
  store i32 0, i32* %4, align 4
  store i32 0, i32* %5, align 4
  %13 = call i32 (i8*, ...) @__isoc99_scanf(i8* getelementptr inbounds ([3 x i8], [3 x i8]* @.str, i64 0, i64 0), i32* %2)
  store i32 0, i32* %3, align 4
  br label %14

14:                                               ; preds = %29, %0
  %15 = load i32, i32* %3, align 4
  %16 = load i32, i32* %2, align 4
  %17 = icmp slt i32 %15, %16
  br i1 %17, label %18, label %32

18:                                               ; preds = %14
  %19 = load i32, i32* %3, align 4
  %20 = sext i32 %19 to i64
  %21 = getelementptr inbounds [300 x i32], [300 x i32]* %1, i64 0, i64 %20
  %22 = call i32 (i8*, ...) @__isoc99_scanf(i8* getelementptr inbounds ([3 x i8], [3 x i8]* @.str, i64 0, i64 0), i32* %21)
  %23 = load i32, i32* %5, align 4
  %24 = load i32, i32* %3, align 4
  %25 = sext i32 %24 to i64
  %26 = getelementptr inbounds [300 x i32], [300 x i32]* %1, i64 0, i64 %25
  %27 = load i32, i32* %26, align 4
  %28 = add nsw i32 %23, %27
  store i32 %28, i32* %5, align 4
  br label %29

29:                                               ; preds = %18
  %30 = load i32, i32* %3, align 4
  %31 = add nsw i32 %30, 1
  store i32 %31, i32* %3, align 4
  br label %14

32:                                               ; preds = %14
  %33 = load i32, i32* %5, align 4
  %34 = sitofp i32 %33 to float
  %35 = load i32, i32* %2, align 4
  %36 = sitofp i32 %35 to float
  %37 = fdiv float %34, %36
  store float %37, float* %8, align 4
  store i32 0, i32* %3, align 4
  br label %38

38:                                               ; preds = %73, %32
  %39 = load i32, i32* %3, align 4
  %40 = load i32, i32* %2, align 4
  %41 = icmp slt i32 %39, %40
  br i1 %41, label %42, label %76

42:                                               ; preds = %38
  %43 = load i32, i32* %3, align 4
  %44 = sext i32 %43 to i64
  %45 = getelementptr inbounds [300 x i32], [300 x i32]* %1, i64 0, i64 %44
  %46 = load i32, i32* %45, align 4
  %47 = sitofp i32 %46 to float
  %48 = load float, float* %8, align 4
  %49 = fcmp ogt float %47, %48
  br i1 %49, label %50, label %61

50:                                               ; preds = %42
  %51 = load i32, i32* %3, align 4
  %52 = sext i32 %51 to i64
  %53 = getelementptr inbounds [300 x i32], [300 x i32]* %1, i64 0, i64 %52
  %54 = load i32, i32* %53, align 4
  %55 = sitofp i32 %54 to float
  %56 = load float, float* %8, align 4
  %57 = fsub float %55, %56
  %58 = load i32, i32* %3, align 4
  %59 = sext i32 %58 to i64
  %60 = getelementptr inbounds [300 x float], [300 x float]* %9, i64 0, i64 %59
  store float %57, float* %60, align 4
  br label %72

61:                                               ; preds = %42
  %62 = load float, float* %8, align 4
  %63 = load i32, i32* %3, align 4
  %64 = sext i32 %63 to i64
  %65 = getelementptr inbounds [300 x i32], [300 x i32]* %1, i64 0, i64 %64
  %66 = load i32, i32* %65, align 4
  %67 = sitofp i32 %66 to float
  %68 = fsub float %62, %67
  %69 = load i32, i32* %3, align 4
  %70 = sext i32 %69 to i64
  %71 = getelementptr inbounds [300 x float], [300 x float]* %9, i64 0, i64 %70
  store float %68, float* %71, align 4
  br label %72

72:                                               ; preds = %61, %50
  br label %73

73:                                               ; preds = %72
  %74 = load i32, i32* %3, align 4
  %75 = add nsw i32 %74, 1
  store i32 %75, i32* %3, align 4
  br label %38

76:                                               ; preds = %38
  store i32 0, i32* %7, align 4
  store i32 0, i32* %3, align 4
  br label %77

77:                                               ; preds = %94, %76
  %78 = load i32, i32* %3, align 4
  %79 = load i32, i32* %2, align 4
  %80 = icmp slt i32 %78, %79
  br i1 %80, label %81, label %97

81:                                               ; preds = %77
  %82 = load i32, i32* %7, align 4
  %83 = sext i32 %82 to i64
  %84 = getelementptr inbounds [300 x float], [300 x float]* %9, i64 0, i64 %83
  %85 = load float, float* %84, align 4
  %86 = load i32, i32* %3, align 4
  %87 = sext i32 %86 to i64
  %88 = getelementptr inbounds [300 x float], [300 x float]* %9, i64 0, i64 %87
  %89 = load float, float* %88, align 4
  %90 = fcmp olt float %85, %89
  br i1 %90, label %91, label %93

91:                                               ; preds = %81
  %92 = load i32, i32* %3, align 4
  store i32 %92, i32* %7, align 4
  br label %93

93:                                               ; preds = %91, %81
  br label %94

94:                                               ; preds = %93
  %95 = load i32, i32* %3, align 4
  %96 = add nsw i32 %95, 1
  store i32 %96, i32* %3, align 4
  br label %77

97:                                               ; preds = %77
  store i32 0, i32* %3, align 4
  br label %98

98:                                               ; preds = %122, %97
  %99 = load i32, i32* %3, align 4
  %100 = load i32, i32* %2, align 4
  %101 = icmp slt i32 %99, %100
  br i1 %101, label %102, label %125

102:                                              ; preds = %98
  %103 = load i32, i32* %3, align 4
  %104 = sext i32 %103 to i64
  %105 = getelementptr inbounds [300 x float], [300 x float]* %9, i64 0, i64 %104
  %106 = load float, float* %105, align 4
  %107 = load i32, i32* %7, align 4
  %108 = sext i32 %107 to i64
  %109 = getelementptr inbounds [300 x float], [300 x float]* %9, i64 0, i64 %108
  %110 = load float, float* %109, align 4
  %111 = fcmp oeq float %106, %110
  br i1 %111, label %112, label %121

112:                                              ; preds = %102
  %113 = load i32, i32* %3, align 4
  %114 = sext i32 %113 to i64
  %115 = getelementptr inbounds [300 x i32], [300 x i32]* %1, i64 0, i64 %114
  %116 = load i32, i32* %115, align 4
  %117 = load i32, i32* %4, align 4
  %118 = add nsw i32 %117, 1
  store i32 %118, i32* %4, align 4
  %119 = sext i32 %117 to i64
  %120 = getelementptr inbounds [300 x i32], [300 x i32]* %6, i64 0, i64 %119
  store i32 %116, i32* %120, align 4
  br label %121

121:                                              ; preds = %112, %102
  br label %122

122:                                              ; preds = %121
  %123 = load i32, i32* %3, align 4
  %124 = add nsw i32 %123, 1
  store i32 %124, i32* %3, align 4
  br label %98

125:                                              ; preds = %98
  store i32 0, i32* %10, align 4
  br label %126

126:                                              ; preds = %173, %125
  %127 = load i32, i32* %10, align 4
  %128 = load i32, i32* %4, align 4
  %129 = sub nsw i32 %128, 1
  %130 = icmp slt i32 %127, %129
  br i1 %130, label %131, label %176

131:                                              ; preds = %126
  store i32 0, i32* %11, align 4
  br label %132

132:                                              ; preds = %169, %131
  %133 = load i32, i32* %11, align 4
  %134 = load i32, i32* %4, align 4
  %135 = load i32, i32* %10, align 4
  %136 = sub nsw i32 %134, %135
  %137 = sub nsw i32 %136, 1
  %138 = icmp slt i32 %133, %137
  br i1 %138, label %139, label %172

139:                                              ; preds = %132
  %140 = load i32, i32* %11, align 4
  %141 = sext i32 %140 to i64
  %142 = getelementptr inbounds [300 x i32], [300 x i32]* %6, i64 0, i64 %141
  %143 = load i32, i32* %142, align 4
  %144 = load i32, i32* %11, align 4
  %145 = add nsw i32 %144, 1
  %146 = sext i32 %145 to i64
  %147 = getelementptr inbounds [300 x i32], [300 x i32]* %6, i64 0, i64 %146
  %148 = load i32, i32* %147, align 4
  %149 = icmp sgt i32 %143, %148
  br i1 %149, label %150, label %168

150:                                              ; preds = %139
  %151 = load i32, i32* %11, align 4
  %152 = sext i32 %151 to i64
  %153 = getelementptr inbounds [300 x i32], [300 x i32]* %6, i64 0, i64 %152
  %154 = load i32, i32* %153, align 4
  store i32 %154, i32* %12, align 4
  %155 = load i32, i32* %11, align 4
  %156 = add nsw i32 %155, 1
  %157 = sext i32 %156 to i64
  %158 = getelementptr inbounds [300 x i32], [300 x i32]* %6, i64 0, i64 %157
  %159 = load i32, i32* %158, align 4
  %160 = load i32, i32* %11, align 4
  %161 = sext i32 %160 to i64
  %162 = getelementptr inbounds [300 x i32], [300 x i32]* %6, i64 0, i64 %161
  store i32 %159, i32* %162, align 4
  %163 = load i32, i32* %12, align 4
  %164 = load i32, i32* %11, align 4
  %165 = add nsw i32 %164, 1
  %166 = sext i32 %165 to i64
  %167 = getelementptr inbounds [300 x i32], [300 x i32]* %6, i64 0, i64 %166
  store i32 %163, i32* %167, align 4
  br label %168

168:                                              ; preds = %150, %139
  br label %169

169:                                              ; preds = %168
  %170 = load i32, i32* %11, align 4
  %171 = add nsw i32 %170, 1
  store i32 %171, i32* %11, align 4
  br label %132

172:                                              ; preds = %132
  br label %173

173:                                              ; preds = %172
  %174 = load i32, i32* %10, align 4
  %175 = add nsw i32 %174, 1
  store i32 %175, i32* %10, align 4
  br label %126

176:                                              ; preds = %126
  store i32 0, i32* %3, align 4
  br label %177

177:                                              ; preds = %194, %176
  %178 = load i32, i32* %3, align 4
  %179 = load i32, i32* %4, align 4
  %180 = icmp slt i32 %178, %179
  br i1 %180, label %181, label %197

181:                                              ; preds = %177
  %182 = load i32, i32* %3, align 4
  %183 = sext i32 %182 to i64
  %184 = getelementptr inbounds [300 x i32], [300 x i32]* %6, i64 0, i64 %183
  %185 = load i32, i32* %184, align 4
  %186 = call i32 (i8*, ...) @printf(i8* getelementptr inbounds ([3 x i8], [3 x i8]* @.str, i64 0, i64 0), i32 %185)
  %187 = load i32, i32* %3, align 4
  %188 = load i32, i32* %4, align 4
  %189 = sub nsw i32 %188, 1
  %190 = icmp ne i32 %187, %189
  br i1 %190, label %191, label %193

191:                                              ; preds = %181
  %192 = call i32 (i8*, ...) @printf(i8* getelementptr inbounds ([2 x i8], [2 x i8]* @.str.1, i64 0, i64 0))
  br label %193

193:                                              ; preds = %191, %181
  br label %194

194:                                              ; preds = %193
  %195 = load i32, i32* %3, align 4
  %196 = add nsw i32 %195, 1
  store i32 %196, i32* %3, align 4
  br label %177

197:                                              ; preds = %177
  ret void
}